; Function Attrs: nounwind uwtable
define internal fastcc range(i32 0, 2) i32 @Cba_FonSigned(ptr noundef captures(none) %0, i32 noundef %1) unnamed_addr #0 {
  %.not = icmp sgt i32 %1, -1
  br i1 %.not, label %10, label %3

3:                                                ; preds = %2
  %.val = load ptr, ptr %0, align 8
  %4 = getelementptr i8, ptr %.val, i64 24
  %.val.val = load ptr, ptr %4, align 8
  %5 = xor i32 %1, -1
  %6 = tail call ptr @Abc_NamStr(ptr noundef %.val.val, i32 noundef range(i32 -2147483648, 2147483647) %5) #20
  %7 = tail call ptr @strchr(ptr noundef nonnull dereferenceable(1) %6, i32 noundef 115) #21
  %8 = icmp ne ptr %7, null
  %9 = zext i1 %8 to i32
  br label %Cba_FonRangeId.exit

10:                                               ; preds = %2
  %11 = getelementptr i8, ptr %0, i64 284
  %.val.i = load i32, ptr %11, align 4
  %12 = icmp slt i32 %.val.i, 1
  br i1 %12, label %Cba_FonRangeId.exit, label %13

13:                                               ; preds = %10
  %14 = getelementptr inbounds nuw i8, ptr %0, i64 280
  %15 = add nuw nsw i32 %1, 1
  tail call fastcc void @Vec_IntFillExtra(ptr noundef nonnull %14, i32 noundef %15, i32 noundef 0)
  %16 = getelementptr i8, ptr %0, i64 288
  %.val.i.i = load ptr, ptr %16, align 8
  %17 = zext nneg i32 %1 to i64
  %18 = getelementptr inbounds nuw i32, ptr %.val.i.i, i64 %17
  %19 = load i32, ptr %18, align 4
  %20 = and i32 %19, 1
  br label %Cba_FonRangeId.exit

Cba_FonRangeId.exit:                              ; preds = %13, %10, %3
  %21 = phi i32 [ %9, %3 ], [ %20, %13 ], [ 0, %10 ]
  ret i32 %21
}